target datalayout = "e-m:e-p270:32:32-p271:32:32-p272:64:64-i64:64-i128:128-f80:128-n8:16:32:64-S128"
target triple = "x86_64-pc-linux-gnu"

%class.Klass = type <{ %class.Metadata, i32, i32, i32, i32, ptr, ptr, ptr, [8 x ptr], %class.OopHandle, ptr, ptr, ptr, ptr, ptr, i32, %class.AccessFlags, i64, i64, i8, i8, i16, i16, [2 x i8], i32, [4 x i8] }>
%class.Metadata = type { ptr }
%class.OopHandle = type { ptr }
%class.AccessFlags = type { i32 }
%class.ArrayKlass = type { %class.Klass.base, i32, ptr, ptr }
%class.Klass.base = type <{ %class.Metadata, i32, i32, i32, i32, ptr, ptr, ptr, [8 x ptr], %class.OopHandle, ptr, ptr, ptr, ptr, ptr, i32, %class.AccessFlags, i64, i64, i8, i8, i16, i16, [2 x i8], i32 }>
%class.ObjArrayKlass = type { %class.ArrayKlass, ptr, ptr }

@.str = private unnamed_addr constant [41 x i8] c"src/hotspot/share/oops/objArrayKlass.cpp\00", align 1
@g_assert_poison = external global ptr, align 8
@.str.18 = private unnamed_addr constant [46 x i8] c"guarantee(element_klass()->is_klass()) failed\00", align 1
@.str.19 = private unnamed_addr constant [16 x i8] c"should be klass\00", align 1
@.str.20 = private unnamed_addr constant [45 x i8] c"guarantee(bottom_klass()->is_klass()) failed\00", align 1
@.str.21 = private unnamed_addr constant [70 x i8] c"guarantee(bk->is_instance_klass() || bk->is_typeArray_klass()) failed\00", align 1
@.str.22 = private unnamed_addr constant [21 x i8] c"invalid bottom klass\00", align 1

; Function Attrs: mustprogress nounwind uwtable
define linkonce_odr hidden noundef zeroext i1 @_ZNK5Klass18is_typeArray_klassEv(ptr noundef nonnull align 8 dereferenceable(196) %0) #1 comdat align 2 {
  %2 = alloca ptr, align 8
  store ptr %0, ptr %2, align 8
  %3 = load ptr, ptr %2, align 8
  %4 = getelementptr inbounds %class.Klass, ptr %3, i32 0, i32 2
  %5 = load i32, ptr %4, align 4
  %6 = icmp eq i32 %5, 5
  ret i1 %6
}

; Function Attrs: mustprogress nounwind uwtable
define linkonce_odr hidden noundef zeroext i1 @_ZNK5Klass17is_instance_klassEv(ptr noundef nonnull align 8 dereferenceable(196) %0) #1 comdat align 2 {
  %2 = alloca ptr, align 8
  store ptr %0, ptr %2, align 8
  %3 = load ptr, ptr %2, align 8
  %4 = getelementptr inbounds %class.Klass, ptr %3, i32 0, i32 2
  %5 = load i32, ptr %4, align 4
  %6 = icmp sle i32 %5, 4
  ret i1 %6
}

; Function Attrs: mustprogress nounwind uwtable
define linkonce_odr hidden noundef ptr @_ZNK13ObjArrayKlass12bottom_klassEv(ptr noundef nonnull align 8 dereferenceable(232) %0) #1 comdat align 2 {
  %2 = alloca ptr, align 8
  store ptr %0, ptr %2, align 8
  %3 = load ptr, ptr %2, align 8
  %4 = getelementptr inbounds %class.ObjArrayKlass, ptr %3, i32 0, i32 2
  %5 = load ptr, ptr %4, align 8
  ret ptr %5
}

; Function Attrs: mustprogress nounwind uwtable
define linkonce_odr hidden noundef ptr @_ZNK13ObjArrayKlass13element_klassEv(ptr noundef nonnull align 8 dereferenceable(232) %0) #1 comdat align 2 {
  %2 = alloca ptr, align 8
  store ptr %0, ptr %2, align 8
  %3 = load ptr, ptr %2, align 8
  %4 = getelementptr inbounds %class.ObjArrayKlass, ptr %3, i32 0, i32 1
  %5 = load ptr, ptr %4, align 8
  ret ptr %5
}

; Function Attrs: mustprogress nounwind uwtable
define hidden void @_ZN13ObjArrayKlass9verify_onEP12outputStream(ptr noundef nonnull align 8 dereferenceable(232) %0, ptr noundef %1) unnamed_addr #1 align 2 {
  %3 = alloca ptr, align 8
  %4 = alloca ptr, align 8
  %5 = alloca ptr, align 8
  store ptr %0, ptr %3, align 8
  store ptr %1, ptr %4, align 8
  %6 = load ptr, ptr %3, align 8
  %7 = load ptr, ptr %4, align 8
  call void @_ZN10ArrayKlass9verify_onEP12outputStream(ptr noundef nonnull align 8 dereferenceable(216) %6, ptr noundef %7)
  br label %8

8:                                                ; preds = %2
  %9 = call noundef ptr @_ZNK13ObjArrayKlass13element_klassEv(ptr noundef nonnull align 8 dereferenceable(232) %6)
  %10 = load ptr, ptr %9, align 8
  %11 = getelementptr inbounds ptr, ptr %10, i64 1
  %12 = load ptr, ptr %11, align 8
  %13 = call noundef zeroext i1 %12(ptr noundef nonnull align 8 dereferenceable(196) %9)
  br i1 %13, label %16, label %14

14:                                               ; preds = %8
  %15 = load ptr, ptr @g_assert_poison, align 8
  store i8 88, ptr %15, align 1
  call void (ptr, i32, ptr, ptr, ...) @_Z15report_vm_errorPKciS0_S0_z(ptr noundef @.str, i32 noundef 426, ptr noundef @.str.18, ptr noundef @.str.19) #12
  unreachable

16:                                               ; preds = %8
  br label %17

17:                                               ; preds = %16
  br label %18

18:                                               ; preds = %17
  %19 = call noundef ptr @_ZNK13ObjArrayKlass12bottom_klassEv(ptr noundef nonnull align 8 dereferenceable(232) %6)
  %20 = load ptr, ptr %19, align 8
  %21 = getelementptr inbounds ptr, ptr %20, i64 1
  %22 = load ptr, ptr %21, align 8
  %23 = call noundef zeroext i1 %22(ptr noundef nonnull align 8 dereferenceable(196) %19)
  br i1 %23, label %26, label %24

24:                                               ; preds = %18
  %25 = load ptr, ptr @g_assert_poison, align 8
  store i8 88, ptr %25, align 1
  call void (ptr, i32, ptr, ptr, ...) @_Z15report_vm_errorPKciS0_S0_z(ptr noundef @.str, i32 noundef 427, ptr noundef @.str.20, ptr noundef @.str.19) #12
  unreachable

26:                                               ; preds = %18
  br label %27

27:                                               ; preds = %26
  %28 = call noundef ptr @_ZNK13ObjArrayKlass12bottom_klassEv(ptr noundef nonnull align 8 dereferenceable(232) %6)
  store ptr %28, ptr %5, align 8
  br label %29

29:                                               ; preds = %27
  %30 = load ptr, ptr %5, align 8
  %31 = call noundef zeroext i1 @_ZNK5Klass17is_instance_klassEv(ptr noundef nonnull align 8 dereferenceable(196) %30)
  br i1 %31, label %37, label %32

32:                                               ; preds = %29
  %33 = load ptr, ptr %5, align 8
  %34 = call noundef zeroext i1 @_ZNK5Klass18is_typeArray_klassEv(ptr noundef nonnull align 8 dereferenceable(196) %33)
  br i1 %34, label %37, label %35

35:                                               ; preds = %32
  %36 = load ptr, ptr @g_assert_poison, align 8
  store i8 88, ptr %36, align 1
  call void (ptr, i32, ptr, ptr, ...) @_Z15report_vm_errorPKciS0_S0_z(ptr noundef @.str, i32 noundef 429, ptr noundef @.str.21, ptr noundef @.str.22) #12
  unreachable

37:                                               ; preds = %32, %29
  br label %38

38:                                               ; preds = %37
  ret void
}