; Function Attrs: mustprogress nounwind uwtable
define hidden void @_ZN13ObjArrayKlass9verify_onEP12outputStream(ptr noundef nonnull align 8 dereferenceable(232) %0, ptr noundef %1) unnamed_addr #0 align 2 {
  tail call void @_ZN10ArrayKlass9verify_onEP12outputStream(ptr noundef nonnull align 8 dereferenceable(216) %0, ptr noundef %1) #12
  %3 = getelementptr inbounds i8, ptr %0, i64 216
  %4 = load ptr, ptr %3, align 8
  %5 = load ptr, ptr %4, align 8
  %6 = getelementptr inbounds i8, ptr %5, i64 8
  %7 = load ptr, ptr %6, align 8
  %8 = tail call noundef zeroext i1 %7(ptr noundef nonnull align 8 dereferenceable(196) %4) #12
  br i1 %8, label %11, label %9

9:                                                ; preds = %2
  %10 = load ptr, ptr @g_assert_poison, align 8
  store i8 88, ptr %10, align 1
  tail call void (ptr, i32, ptr, ptr, ...) @_Z15report_vm_errorPKciS0_S0_z(ptr noundef nonnull @.str, i32 noundef 426, ptr noundef nonnull @.str.18, ptr noundef nonnull @.str.19) #14
  unreachable

11:                                               ; preds = %2
  %12 = getelementptr inbounds i8, ptr %0, i64 224
  %13 = load ptr, ptr %12, align 8
  %14 = load ptr, ptr %13, align 8
  %15 = getelementptr inbounds i8, ptr %14, i64 8
  %16 = load ptr, ptr %15, align 8
  %17 = tail call noundef zeroext i1 %16(ptr noundef nonnull align 8 dereferenceable(196) %13) #12
  br i1 %17, label %20, label %18

18:                                               ; preds = %11
  %19 = load ptr, ptr @g_assert_poison, align 8
  store i8 88, ptr %19, align 1
  tail call void (ptr, i32, ptr, ptr, ...) @_Z15report_vm_errorPKciS0_S0_z(ptr noundef nonnull @.str, i32 noundef 427, ptr noundef nonnull @.str.20, ptr noundef nonnull @.str.19) #14
  unreachable

20:                                               ; preds = %11
  %21 = load ptr, ptr %12, align 8
  %22 = getelementptr inbounds i8, ptr %21, i64 12
  %23 = load i32, ptr %22, align 4
  %or.cond = icmp slt i32 %23, 6
  br i1 %or.cond, label %26, label %24

24:                                               ; preds = %20
  %25 = load ptr, ptr @g_assert_poison, align 8
  store i8 88, ptr %25, align 1
  tail call void (ptr, i32, ptr, ptr, ...) @_Z15report_vm_errorPKciS0_S0_z(ptr noundef nonnull @.str, i32 noundef 429, ptr noundef nonnull @.str.21, ptr noundef nonnull @.str.22) #14
  unreachable

26:                                               ; preds = %20
  ret void
}